; Function Attrs: mustprogress nofree norecurse nosync nounwind memory(read, argmem: readwrite, inaccessiblemem: none) uwtable
define internal noundef i64 @_ZNK5faiss12_GLOBAL__N_110IVFScannerINS_17HammingComputer32EE10scan_codesEmPKhPKlPfPlm(ptr nocapture noundef nonnull readonly align 8 dereferenceable(168) %0, i64 noundef %1, ptr nocapture noundef readonly %2, ptr nocapture noundef readonly %3, ptr nocapture noundef %4, ptr nocapture noundef %5, i64 noundef %6) unnamed_addr #17 align 2 {
  %.not24 = icmp eq i64 %1, 0
  br i1 %.not24, label %._crit_edge, label %.lr.ph

.lr.ph:                                           ; preds = %7
  %8 = getelementptr inbounds i8, ptr %0, i64 136
  %9 = getelementptr inbounds i8, ptr %0, i64 17
  %10 = getelementptr inbounds i8, ptr %0, i64 8
  %11 = getelementptr inbounds i8, ptr %4, i64 -4
  %12 = getelementptr inbounds i8, ptr %5, i64 -8
  %13 = icmp ult i64 %6, 2
  %.phi.trans.insert.i.i = getelementptr inbounds float, ptr %11, i64 %6
  %14 = getelementptr inbounds i8, ptr %0, i64 32
  br label %15

15:                                               ; preds = %.lr.ph, %75
  %.023 = phi ptr [ %2, %.lr.ph ], [ %77, %75 ]
  %.01722 = phi i64 [ 0, %.lr.ph ], [ %.1, %75 ]
  %.01820 = phi i64 [ 0, %.lr.ph ], [ %78, %75 ]
  %16 = load <4 x i64>, ptr %.023, align 8
  %17 = load <4 x i64>, ptr %8, align 8
  %18 = xor <4 x i64> %17, %16
  %19 = tail call <4 x i64> @llvm.ctpop.v4i64(<4 x i64> %18), !range !13
  %20 = tail call i64 @llvm.vector.reduce.add.v4i64(<4 x i64> %19)
  %21 = trunc i64 %20 to i32
  %22 = sitofp i32 %21 to float
  %23 = load float, ptr %4, align 4
  %24 = fcmp ogt float %23, %22
  br i1 %24, label %25, label %75

25:                                               ; preds = %15
  %26 = load i8, ptr %9, align 1
  %27 = and i8 %26, 1
  %.not = icmp eq i8 %27, 0
  br i1 %.not, label %32, label %28

28:                                               ; preds = %25
  %29 = load i64, ptr %10, align 8
  %30 = shl i64 %29, 32
  %31 = or i64 %30, %.01820
  br label %35

32:                                               ; preds = %25
  %33 = getelementptr inbounds i64, ptr %3, i64 %.01820
  %34 = load i64, ptr %33, align 8
  br label %35

35:                                               ; preds = %32, %28
  %36 = phi i64 [ %31, %28 ], [ %34, %32 ]
  br i1 %13, label %_ZN5faiss19maxheap_replace_topIfEEvmPT_PlS1_l.exit, label %.lr.ph.i.i

.lr.ph.i.i:                                       ; preds = %35, %65
  %37 = phi i64 [ %70, %65 ], [ 3, %35 ]
  %38 = phi i64 [ %69, %65 ], [ 2, %35 ]
  %.056.i.i = phi i64 [ %.1.i.i, %65 ], [ 1, %35 ]
  %39 = icmp eq i64 %38, %6
  br i1 %39, label %.lr.ph._ZN5faiss4CMaxIflE4cmp2Effll.exit.thread_crit_edge.i.i, label %40

.lr.ph._ZN5faiss4CMaxIflE4cmp2Effll.exit.thread_crit_edge.i.i: ; preds = %.lr.ph.i.i
  %.pre.i.i = load float, ptr %.phi.trans.insert.i.i, align 4
  br label %_ZN5faiss4CMaxIflE4cmp2Effll.exit.thread.i.i

40:                                               ; preds = %.lr.ph.i.i
  %41 = getelementptr inbounds float, ptr %11, i64 %38
  %42 = load float, ptr %41, align 4
  %43 = getelementptr inbounds float, ptr %11, i64 %37
  %44 = load float, ptr %43, align 4
  %45 = getelementptr inbounds i64, ptr %12, i64 %37
  %46 = load i64, ptr %45, align 8
  %47 = fcmp ogt float %42, %44
  br i1 %47, label %_ZN5faiss4CMaxIflE4cmp2Effll.exit.thread.i.i, label %_ZN5faiss4CMaxIflE4cmp2Effll.exit.i.i

_ZN5faiss4CMaxIflE4cmp2Effll.exit.i.i:            ; preds = %40
  %48 = getelementptr inbounds i64, ptr %12, i64 %38
  %49 = load i64, ptr %48, align 8
  %50 = fcmp oeq float %42, %44
  %51 = icmp sgt i64 %49, %46
  %52 = and i1 %50, %51
  br i1 %52, label %_ZN5faiss4CMaxIflE4cmp2Effll.exit.thread.i.i, label %60

_ZN5faiss4CMaxIflE4cmp2Effll.exit.thread.i.i:     ; preds = %_ZN5faiss4CMaxIflE4cmp2Effll.exit.i.i, %40, %.lr.ph._ZN5faiss4CMaxIflE4cmp2Effll.exit.thread_crit_edge.i.i
  %53 = phi float [ %.pre.i.i, %.lr.ph._ZN5faiss4CMaxIflE4cmp2Effll.exit.thread_crit_edge.i.i ], [ %42, %40 ], [ %42, %_ZN5faiss4CMaxIflE4cmp2Effll.exit.i.i ]
  %54 = fcmp olt float %53, %22
  br i1 %54, label %_ZN5faiss19maxheap_replace_topIfEEvmPT_PlS1_l.exit, label %_ZN5faiss4CMaxIflE4cmp2Effll.exit54.i.i

_ZN5faiss4CMaxIflE4cmp2Effll.exit54.i.i:          ; preds = %_ZN5faiss4CMaxIflE4cmp2Effll.exit.thread.i.i
  %55 = getelementptr inbounds i64, ptr %12, i64 %38
  %56 = load i64, ptr %55, align 8
  %57 = fcmp oeq float %53, %22
  %58 = icmp slt i64 %56, %36
  %59 = and i1 %57, %58
  br i1 %59, label %_ZN5faiss19maxheap_replace_topIfEEvmPT_PlS1_l.exit, label %65

60:                                               ; preds = %_ZN5faiss4CMaxIflE4cmp2Effll.exit.i.i
  %61 = fcmp olt float %44, %22
  br i1 %61, label %_ZN5faiss19maxheap_replace_topIfEEvmPT_PlS1_l.exit, label %_ZN5faiss4CMaxIflE4cmp2Effll.exit55.i.i

_ZN5faiss4CMaxIflE4cmp2Effll.exit55.i.i:          ; preds = %60
  %62 = fcmp oeq float %44, %22
  %63 = icmp slt i64 %46, %36
  %64 = and i1 %62, %63
  br i1 %64, label %_ZN5faiss19maxheap_replace_topIfEEvmPT_PlS1_l.exit, label %65

65:                                               ; preds = %_ZN5faiss4CMaxIflE4cmp2Effll.exit55.i.i, %_ZN5faiss4CMaxIflE4cmp2Effll.exit54.i.i
  %.sink.i.i = phi float [ %53, %_ZN5faiss4CMaxIflE4cmp2Effll.exit54.i.i ], [ %44, %_ZN5faiss4CMaxIflE4cmp2Effll.exit55.i.i ]
  %.sink63.i.i = phi ptr [ %55, %_ZN5faiss4CMaxIflE4cmp2Effll.exit54.i.i ], [ %45, %_ZN5faiss4CMaxIflE4cmp2Effll.exit55.i.i ]
  %.1.i.i = phi i64 [ %38, %_ZN5faiss4CMaxIflE4cmp2Effll.exit54.i.i ], [ %37, %_ZN5faiss4CMaxIflE4cmp2Effll.exit55.i.i ]
  %66 = getelementptr inbounds float, ptr %11, i64 %.056.i.i
  store float %.sink.i.i, ptr %66, align 4
  %67 = load i64, ptr %.sink63.i.i, align 8
  %68 = getelementptr inbounds i64, ptr %12, i64 %.056.i.i
  store i64 %67, ptr %68, align 8
  %69 = shl i64 %.1.i.i, 1
  %70 = or disjoint i64 %69, 1
  %71 = icmp ugt i64 %69, %6
  br i1 %71, label %_ZN5faiss19maxheap_replace_topIfEEvmPT_PlS1_l.exit, label %.lr.ph.i.i, !llvm.loop !27

_ZN5faiss19maxheap_replace_topIfEEvmPT_PlS1_l.exit: ; preds = %_ZN5faiss4CMaxIflE4cmp2Effll.exit.thread.i.i, %_ZN5faiss4CMaxIflE4cmp2Effll.exit54.i.i, %60, %_ZN5faiss4CMaxIflE4cmp2Effll.exit55.i.i, %65, %35
  %.0.lcssa.i.i = phi i64 [ 1, %35 ], [ %.056.i.i, %60 ], [ %.056.i.i, %_ZN5faiss4CMaxIflE4cmp2Effll.exit.thread.i.i ], [ %.056.i.i, %_ZN5faiss4CMaxIflE4cmp2Effll.exit55.i.i ], [ %.056.i.i, %_ZN5faiss4CMaxIflE4cmp2Effll.exit54.i.i ], [ %.1.i.i, %65 ]
  %72 = getelementptr inbounds float, ptr %11, i64 %.0.lcssa.i.i
  store float %22, ptr %72, align 4
  %73 = getelementptr inbounds i64, ptr %12, i64 %.0.lcssa.i.i
  store i64 %36, ptr %73, align 8
  %74 = add i64 %.01722, 1
  br label %75

75:                                               ; preds = %_ZN5faiss19maxheap_replace_topIfEEvmPT_PlS1_l.exit, %15
  %.1 = phi i64 [ %74, %_ZN5faiss19maxheap_replace_topIfEEvmPT_PlS1_l.exit ], [ %.01722, %15 ]
  %76 = load i64, ptr %14, align 8
  %77 = getelementptr inbounds i8, ptr %.023, i64 %76
  %78 = add nuw i64 %.01820, 1
  %exitcond.not = icmp eq i64 %78, %1
  br i1 %exitcond.not, label %._crit_edge, label %15, !llvm.loop !35

._crit_edge:                                      ; preds = %75, %7
  %.017.lcssa = phi i64 [ 0, %7 ], [ %.1, %75 ]
  ret i64 %.017.lcssa
}